target datalayout = "e-m:e-p270:32:32-p271:32:32-p272:64:64-i64:64-i128:128-f80:128-n8:16:32:64-S128"
target triple = "x86_64-pc-linux-gnu"

%struct._zend_blacklist = type { ptr, i32, i32, ptr }
%struct._zend_blacklist_entry = type { ptr, i32, i32 }
%struct._zend_regexp_list = type { ptr, ptr }

@.str = private unnamed_addr constant [37 x i8] c"Blacklist initialization: no memory\0A\00", align 1

; Function Attrs: nounwind uwtable
define hidden void @zend_accel_blacklist_shutdown(ptr noundef %0) #0 {
  %2 = alloca ptr, align 8
  %3 = alloca ptr, align 8
  %4 = alloca ptr, align 8
  %5 = alloca ptr, align 8
  %6 = alloca ptr, align 8
  store ptr %0, ptr %2, align 8
  %7 = load ptr, ptr %2, align 8
  %8 = getelementptr inbounds %struct._zend_blacklist, ptr %7, i32 0, i32 0
  %9 = load ptr, ptr %8, align 8
  %10 = icmp ne ptr %9, null
  br i1 %10, label %12, label %11

11:                                               ; preds = %1
  br label %61

12:                                               ; preds = %1
  %13 = load ptr, ptr %2, align 8
  %14 = getelementptr inbounds %struct._zend_blacklist, ptr %13, i32 0, i32 0
  %15 = load ptr, ptr %14, align 8
  store ptr %15, ptr %3, align 8
  %16 = load ptr, ptr %2, align 8
  %17 = getelementptr inbounds %struct._zend_blacklist, ptr %16, i32 0, i32 0
  %18 = load ptr, ptr %17, align 8
  %19 = load ptr, ptr %2, align 8
  %20 = getelementptr inbounds %struct._zend_blacklist, ptr %19, i32 0, i32 2
  %21 = load i32, ptr %20, align 4
  %22 = sext i32 %21 to i64
  %23 = getelementptr inbounds %struct._zend_blacklist_entry, ptr %18, i64 %22
  store ptr %23, ptr %4, align 8
  br label %24

24:                                               ; preds = %28, %12
  %25 = load ptr, ptr %3, align 8
  %26 = load ptr, ptr %4, align 8
  %27 = icmp ult ptr %25, %26
  br i1 %27, label %28, label %34

28:                                               ; preds = %24
  %29 = load ptr, ptr %3, align 8
  %30 = getelementptr inbounds %struct._zend_blacklist_entry, ptr %29, i32 0, i32 0
  %31 = load ptr, ptr %30, align 8
  call void @free(ptr noundef %31) #12
  %32 = load ptr, ptr %3, align 8
  %33 = getelementptr inbounds %struct._zend_blacklist_entry, ptr %32, i32 1
  store ptr %33, ptr %3, align 8
  br label %24

34:                                               ; preds = %24
  %35 = load ptr, ptr %2, align 8
  %36 = getelementptr inbounds %struct._zend_blacklist, ptr %35, i32 0, i32 0
  %37 = load ptr, ptr %36, align 8
  call void @free(ptr noundef %37) #12
  %38 = load ptr, ptr %2, align 8
  %39 = getelementptr inbounds %struct._zend_blacklist, ptr %38, i32 0, i32 0
  store ptr null, ptr %39, align 8
  %40 = load ptr, ptr %2, align 8
  %41 = getelementptr inbounds %struct._zend_blacklist, ptr %40, i32 0, i32 3
  %42 = load ptr, ptr %41, align 8
  %43 = icmp ne ptr %42, null
  br i1 %43, label %44, label %61

44:                                               ; preds = %34
  %45 = load ptr, ptr %2, align 8
  %46 = getelementptr inbounds %struct._zend_blacklist, ptr %45, i32 0, i32 3
  %47 = load ptr, ptr %46, align 8
  store ptr %47, ptr %6, align 8
  br label %48

48:                                               ; preds = %51, %44
  %49 = load ptr, ptr %6, align 8
  %50 = icmp ne ptr %49, null
  br i1 %50, label %51, label %60

51:                                               ; preds = %48
  %52 = load ptr, ptr %6, align 8
  %53 = getelementptr inbounds %struct._zend_regexp_list, ptr %52, i32 0, i32 0
  %54 = load ptr, ptr %53, align 8
  call void @php_pcre2_code_free(ptr noundef %54)
  %55 = load ptr, ptr %6, align 8
  store ptr %55, ptr %5, align 8
  %56 = load ptr, ptr %6, align 8
  %57 = getelementptr inbounds %struct._zend_regexp_list, ptr %56, i32 0, i32 1
  %58 = load ptr, ptr %57, align 8
  store ptr %58, ptr %6, align 8
  %59 = load ptr, ptr %5, align 8
  call void @free(ptr noundef %59) #12
  br label %48

60:                                               ; preds = %48
  br label %61

61:                                               ; preds = %60, %34, %11
  ret void
}

; Function Attrs: nounwind uwtable
define hidden void @zend_accel_blacklist_init(ptr noundef %0) #0 {
  %2 = alloca ptr, align 8
  store ptr %0, ptr %2, align 8
  %3 = load ptr, ptr %2, align 8
  %4 = getelementptr inbounds %struct._zend_blacklist, ptr %3, i32 0, i32 2
  store i32 0, ptr %4, align 4
  %5 = load ptr, ptr %2, align 8
  %6 = getelementptr inbounds %struct._zend_blacklist, ptr %5, i32 0, i32 1
  store i32 32, ptr %6, align 8
  %7 = load ptr, ptr %2, align 8
  %8 = getelementptr inbounds %struct._zend_blacklist, ptr %7, i32 0, i32 0
  %9 = load ptr, ptr %8, align 8
  %10 = icmp ne ptr %9, null
  br i1 %10, label %11, label %13

11:                                               ; preds = %1
  %12 = load ptr, ptr %2, align 8
  call void @zend_accel_blacklist_shutdown(ptr noundef %12)
  br label %13

13:                                               ; preds = %11, %1
  %14 = load ptr, ptr %2, align 8
  %15 = getelementptr inbounds %struct._zend_blacklist, ptr %14, i32 0, i32 1
  %16 = load i32, ptr %15, align 8
  %17 = sext i32 %16 to i64
  %18 = call noalias ptr @calloc(i64 noundef 16, i64 noundef %17) #10
  %19 = load ptr, ptr %2, align 8
  %20 = getelementptr inbounds %struct._zend_blacklist, ptr %19, i32 0, i32 0
  store ptr %18, ptr %20, align 8
  %21 = load ptr, ptr %2, align 8
  %22 = getelementptr inbounds %struct._zend_blacklist, ptr %21, i32 0, i32 0
  %23 = load ptr, ptr %22, align 8
  %24 = icmp ne ptr %23, null
  br i1 %24, label %26, label %25

25:                                               ; preds = %13
  call void (i32, ptr, ...) @zend_accel_error_noreturn(i32 noundef 0, ptr noundef @.str) #11
  unreachable

26:                                               ; preds = %13
  %27 = load ptr, ptr %2, align 8
  %28 = getelementptr inbounds %struct._zend_blacklist, ptr %27, i32 0, i32 3
  store ptr null, ptr %28, align 8
  ret void
}