; Function Attrs: nounwind uwtable
define hidden void @zend_accel_blacklist_init(ptr nocapture noundef %0) local_unnamed_addr #0 {
  %2 = getelementptr inbounds i8, ptr %0, i64 12
  store i32 0, ptr %2, align 4
  %3 = getelementptr inbounds i8, ptr %0, i64 8
  store i32 32, ptr %3, align 8
  %4 = load ptr, ptr %0, align 8
  %.not = icmp eq ptr %4, null
  br i1 %.not, label %zend_accel_blacklist_shutdown.exit, label %._crit_edge.i

._crit_edge.i:                                    ; preds = %1
  tail call void @free(ptr noundef nonnull %4) #13
  store ptr null, ptr %0, align 8
  %5 = getelementptr inbounds i8, ptr %0, i64 16
  %6 = load ptr, ptr %5, align 8
  %.not20.i = icmp eq ptr %6, null
  br i1 %.not20.i, label %zend_accel_blacklist_shutdown.exit, label %.preheader.i

.preheader.i:                                     ; preds = %._crit_edge.i, %.preheader.i
  %.023.i = phi ptr [ %9, %.preheader.i ], [ %6, %._crit_edge.i ]
  %7 = load ptr, ptr %.023.i, align 8
  tail call void @php_pcre2_code_free(ptr noundef %7) #13
  %8 = getelementptr inbounds i8, ptr %.023.i, i64 8
  %9 = load ptr, ptr %8, align 8
  tail call void @free(ptr noundef nonnull %.023.i) #13
  %.not21.i = icmp eq ptr %9, null
  br i1 %.not21.i, label %zend_accel_blacklist_shutdown.exit, label %.preheader.i

zend_accel_blacklist_shutdown.exit:               ; preds = %.preheader.i, %._crit_edge.i, %1
  %10 = load i32, ptr %3, align 8
  %11 = sext i32 %10 to i64
  %12 = tail call noalias ptr @calloc(i64 noundef 16, i64 noundef %11) #14
  store ptr %12, ptr %0, align 8
  %.not8 = icmp eq ptr %12, null
  br i1 %.not8, label %13, label %14

13:                                               ; preds = %zend_accel_blacklist_shutdown.exit
  tail call void (i32, ptr, ...) @zend_accel_error_noreturn(i32 noundef 0, ptr noundef nonnull @.str) #15
  unreachable

14:                                               ; preds = %zend_accel_blacklist_shutdown.exit
  %15 = getelementptr inbounds i8, ptr %0, i64 16
  store ptr null, ptr %15, align 8
  ret void
}